target datalayout = "e-m:e-p270:32:32-p271:32:32-p272:64:64-i64:64-i128:128-f80:128-n8:16:32:64-S128"
target triple = "x86_64-pc-linux-gnu"

%struct._zend_compiler_globals = type { %struct._zend_stack, ptr, ptr, i32, ptr, ptr, ptr, ptr, i8, i8, i8, i8, i8, %struct._zend_llist, ptr, i8, i8, i8, i8, ptr, i32, i32, %struct._zend_oparray_context, %struct._zend_file_context, ptr, %struct._zend_array, ptr, i64, i8, i8, i8, ptr, ptr, %struct._zend_stack, ptr, i32, ptr, ptr, i64, i64, ptr, ptr, ptr, ptr, i32, %struct._zend_stack }
%struct._zend_llist = type { ptr, ptr, i64, i64, ptr, i8, ptr }
%struct._zend_oparray_context = type { i32, i32, i32, i32, i32, i32, i32, ptr, ptr, i8 }
%struct._zend_file_context = type { %struct._zend_declarables, ptr, i8, i8, ptr, ptr, ptr, %struct._zend_array }
%struct._zend_declarables = type { i64 }
%struct._zend_array = type { %struct._zend_refcounted_h, %union.anon.4, i32, %union.anon.6, i32, i32, i32, i32, i64, ptr }
%struct._zend_refcounted_h = type { i32, %union.anon }
%union.anon = type { i32 }
%union.anon.4 = type { i32 }
%union.anon.6 = type { ptr }
%struct._zend_stack = type { i32, i32, i32, ptr }
%struct._zend_string = type { %struct._zend_refcounted_h, i64, i64, [1 x i8] }

@compiler_globals = external global %struct._zend_compiler_globals, align 8

; Function Attrs: nounwind uwtable
define internal i32 @OnUpdateScriptEncoding(ptr noundef %0, ptr noundef %1, ptr noundef %2, ptr noundef %3, ptr noundef %4, i32 noundef %5) #0 {
  %7 = alloca i32, align 4
  %8 = alloca ptr, align 8
  %9 = alloca ptr, align 8
  %10 = alloca ptr, align 8
  %11 = alloca ptr, align 8
  %12 = alloca ptr, align 8
  %13 = alloca i32, align 4
  store ptr %0, ptr %8, align 8
  store ptr %1, ptr %9, align 8
  store ptr %2, ptr %10, align 8
  store ptr %3, ptr %11, align 8
  store ptr %4, ptr %12, align 8
  store i32 %5, ptr %13, align 4
  %14 = load i8, ptr getelementptr inbounds (%struct._zend_compiler_globals, ptr @compiler_globals, i32 0, i32 28), align 8
  %15 = trunc i8 %14 to i1
  br i1 %15, label %17, label %16

16:                                               ; preds = %6
  store i32 -1, ptr %7, align 4
  br label %41

17:                                               ; preds = %6
  %18 = call ptr @zend_multibyte_get_functions()
  %19 = icmp ne ptr %18, null
  br i1 %19, label %21, label %20

20:                                               ; preds = %17
  store i32 0, ptr %7, align 4
  br label %41

21:                                               ; preds = %17
  %22 = load ptr, ptr %9, align 8
  %23 = icmp ne ptr %22, null
  br i1 %23, label %24, label %28

24:                                               ; preds = %21
  %25 = load ptr, ptr %9, align 8
  %26 = getelementptr inbounds %struct._zend_string, ptr %25, i32 0, i32 3
  %27 = getelementptr inbounds [1 x i8], ptr %26, i64 0, i64 0
  br label %29

28:                                               ; preds = %21
  br label %29

29:                                               ; preds = %28, %24
  %30 = phi ptr [ %27, %24 ], [ null, %28 ]
  %31 = load ptr, ptr %9, align 8
  %32 = icmp ne ptr %31, null
  br i1 %32, label %33, label %37

33:                                               ; preds = %29
  %34 = load ptr, ptr %9, align 8
  %35 = getelementptr inbounds %struct._zend_string, ptr %34, i32 0, i32 2
  %36 = load i64, ptr %35, align 8
  br label %38

37:                                               ; preds = %29
  br label %38

38:                                               ; preds = %37, %33
  %39 = phi i64 [ %36, %33 ], [ 0, %37 ]
  %40 = call i32 @zend_multibyte_set_script_encoding_by_string(ptr noundef %30, i64 noundef %39)
  store i32 %40, ptr %7, align 4
  br label %41

41:                                               ; preds = %38, %20, %16
  %42 = load i32, ptr %7, align 4
  ret i32 %42
}