; Function Attrs: nounwind uwtable
define internal i32 @OnUpdateScriptEncoding(ptr nocapture readnone %0, ptr noundef %1, ptr nocapture readnone %2, ptr nocapture readnone %3, ptr nocapture readnone %4, i32 %5) #0 {
  %7 = load i8, ptr getelementptr inbounds (%struct._zend_compiler_globals, ptr @compiler_globals, i64 0, i32 28), align 8
  %8 = and i8 %7, 1
  %.not = icmp eq i8 %8, 0
  br i1 %.not, label %20, label %9

9:                                                ; preds = %6
  %10 = tail call ptr @zend_multibyte_get_functions() #30
  %.not5 = icmp eq ptr %10, null
  br i1 %.not5, label %20, label %11

11:                                               ; preds = %9
  %.not6 = icmp eq ptr %1, null
  %12 = getelementptr inbounds i8, ptr %1, i64 24
  %13 = select i1 %.not6, ptr null, ptr %12
  br i1 %.not6, label %17, label %14

14:                                               ; preds = %11
  %15 = getelementptr inbounds i8, ptr %1, i64 16
  %16 = load i64, ptr %15, align 8
  br label %17

17:                                               ; preds = %11, %14
  %18 = phi i64 [ %16, %14 ], [ 0, %11 ]
  %19 = tail call i32 @zend_multibyte_set_script_encoding_by_string(ptr noundef %13, i64 noundef %18) #30
  br label %20

20:                                               ; preds = %9, %6, %17
  %.0 = phi i32 [ %19, %17 ], [ -1, %6 ], [ 0, %9 ]
  ret i32 %.0
}